ccopy_reg
_reconstructor
p1
(cxmppd.modules.db_fake
DictWatch
p2
c__builtin__
dict
p3
(dp4
S'127.0.0.1'
p5
g1
(g2
g3
(dp6
S'acc'
p7
g1
(g2
g3
(dp8
S'name'
p9
S'ACC'
p10
sS'groups'
p11
g1
(g2
g3
(dtRp12
sS'roster'
p13
g1
(g2
g3
(dtRp14
sS'anon_allow'
p15
S'yes'
p16
sS'password'
p17
S'OOOVcOpw'
p18
sS'storage'
p19
g1
(g2
g3
(dtRp20
stRp21
sVtwitteragent
p22
g1
(g2
g3
(dp23
g9
Vtwitteragent
p24
sg11
g1
(g2
g3
(dtRp25
sg13
g1
(g2
g3
(dp26
Vams.127.0.0.1
p27
(dp28
S'state'
p29
S''
sS'subscription'
p30
S'to'
p31
sstRp32
sg15
g16
sg17
Vsecret
p33
sg19
g1
(g2
g3
(dtRp34
stRp35
sVvimeoagent
p36
g1
(g2
g3
(dp37
g9
Vvimeoagent
p38
sg11
g1
(g2
g3
(dtRp39
sg13
g1
(g2
g3
(dp40
Vams.127.0.0.1
p41
(dp42
g29
S''
sg30
g31
sstRp43
sg15
g16
sg17
Vsecret
p44
sg19
g1
(g2
g3
(dtRp45
stRp46
sS'df'
p47
g1
(g2
g3
(dp48
g9
S'DF'
p49
sg11
g1
(g2
g3
(dtRp50
sg13
g1
(g2
g3
(dtRp51
sg15
g16
sg17
S'IJnLMMUJ'
p52
sg19
g1
(g2
g3
(dtRp53
stRp54
sS'ams'
p55
g1
(g2
g3
(dp56
g9
S'AMS'
p57
sg11
g1
(g2
g3
(dtRp58
sg13
g1
(g2
g3
(dp59
S'vimeoagent@127.0.0.1'
p60
(dp61
g29
S''
sg30
S'from'
p62
ssS'twitteragent@127.0.0.1'
p63
(dp64
g29
S''
sg30
g62
ssS'fbagent@127.0.0.1'
p65
(dp66
g29
S''
sg30
g62
sstRp67
sg15
g16
sg17
S'VNzqMkbA'
p68
sg19
g1
(g2
g3
(dtRp69
stRp70
sVfbagent
p71
g1
(g2
g3
(dp72
g9
Vfbagent
p73
sg11
g1
(g2
g3
(dtRp74
sg13
g1
(g2
g3
(dp75
Vams.127.0.0.1
p76
(dp77
g29
S''
sg30
g31
sstRp78
sg15
g16
sg17
Vsecret
p79
sg19
g1
(g2
g3
(dtRp80
stRp81
sS'__ir__'
p82
(dp83
g15
g16
sg17
S'test'
p84
sg19
(dp85
S'karma'
p86
(dp87
S'down'
p88
I307200
sS'tot_up'
p89
I0
sS'tot_down'
p90
I0
sS'up'
p91
I307200307200307200
sS'last_time'
p92
F0
sssg11
(dp93
sg13
(dp94
sstRp95
stRp96
.